target datalayout = "e-m:e-p270:32:32-p271:32:32-p272:64:64-i64:64-i128:128-f80:128-n8:16:32:64-S128"
target triple = "x86_64-pc-linux-gnu"

%"struct.std::atomic.3" = type { %"struct.std::__atomic_base.4" }
%"struct.std::__atomic_base.4" = type { i64 }
%"class.std::chrono::duration" = type { i64 }
%"struct.folly::detail::EventBasePoller::Stats" = type { i32, i32, i64, i64, %"class.std::chrono::duration", %"class.std::chrono::duration", %"class.std::chrono::duration", %"class.std::chrono::duration", %"class.std::chrono::duration", %"class.std::chrono::duration" }
%"class.folly::detail::EventBasePoller" = type { ptr, %"struct.folly::Synchronized" }
%"struct.folly::Synchronized" = type <{ %"struct.folly::detail::EventBasePoller::Stats", %"class.folly::SharedMutexImpl", [4 x i8] }>
%"class.folly::SharedMutexImpl" = type { %"struct.std::atomic" }
%"struct.std::atomic" = type { %"struct.std::__atomic_base" }
%"struct.std::__atomic_base" = type { i32 }
%"class.folly::detail::(anonymous namespace)::EventBasePollerImpl" = type { %"class.folly::detail::EventBasePoller", i8, %"class.std::vector", %"struct.std::atomic.3", %"struct.folly::detail::(anonymous namespace)::EventBasePollerImpl::Event", %"class.std::vector.19", %"class.std::unique_ptr.24", %"class.std::vector.32", %"struct.std::atomic.37", %"class.folly::detail::(anonymous namespace)::Queue" }
%"class.std::vector" = type { %"struct.std::_Vector_base" }
%"struct.std::_Vector_base" = type { %"struct.std::_Vector_base<folly::detail::(anonymous namespace)::EventBasePollerImpl::Event *, std::allocator<folly::detail::(anonymous namespace)::EventBasePollerImpl::Event *>>::_Vector_impl" }
%"struct.std::_Vector_base<folly::detail::(anonymous namespace)::EventBasePollerImpl::Event *, std::allocator<folly::detail::(anonymous namespace)::EventBasePollerImpl::Event *>>::_Vector_impl" = type { %"struct.std::_Vector_base<folly::detail::(anonymous namespace)::EventBasePollerImpl::Event *, std::allocator<folly::detail::(anonymous namespace)::EventBasePollerImpl::Event *>>::_Vector_impl_data" }
%"struct.std::_Vector_base<folly::detail::(anonymous namespace)::EventBasePollerImpl::Event *, std::allocator<folly::detail::(anonymous namespace)::EventBasePollerImpl::Event *>>::_Vector_impl_data" = type { ptr, ptr, ptr }
%"struct.folly::detail::(anonymous namespace)::EventBasePollerImpl::Event" = type { %"class.folly::detail::EventBasePoller::Handle", ptr, i32, i8, ptr, i8, %"class.folly::Baton" }
%"class.folly::detail::EventBasePoller::Handle" = type { ptr, ptr }
%"class.folly::Baton" = type { %"struct.std::atomic" }
%"class.std::vector.19" = type { %"struct.std::_Vector_base.20" }
%"struct.std::_Vector_base.20" = type { %"struct.std::_Vector_base<std::unique_ptr<folly::detail::(anonymous namespace)::EventBasePollerImpl::Event>, std::allocator<std::unique_ptr<folly::detail::(anonymous namespace)::EventBasePollerImpl::Event>>>::_Vector_impl" }
%"struct.std::_Vector_base<std::unique_ptr<folly::detail::(anonymous namespace)::EventBasePollerImpl::Event>, std::allocator<std::unique_ptr<folly::detail::(anonymous namespace)::EventBasePollerImpl::Event>>>::_Vector_impl" = type { %"struct.std::_Vector_base<std::unique_ptr<folly::detail::(anonymous namespace)::EventBasePollerImpl::Event>, std::allocator<std::unique_ptr<folly::detail::(anonymous namespace)::EventBasePollerImpl::Event>>>::_Vector_impl_data" }
%"struct.std::_Vector_base<std::unique_ptr<folly::detail::(anonymous namespace)::EventBasePollerImpl::Event>, std::allocator<std::unique_ptr<folly::detail::(anonymous namespace)::EventBasePollerImpl::Event>>>::_Vector_impl_data" = type { ptr, ptr, ptr }
%"class.std::unique_ptr.24" = type { %"struct.std::__uniq_ptr_data.25" }
%"struct.std::__uniq_ptr_data.25" = type { %"class.std::__uniq_ptr_impl.26" }
%"class.std::__uniq_ptr_impl.26" = type { %"class.std::tuple.27" }
%"class.std::tuple.27" = type { %"struct.std::_Tuple_impl.28" }
%"struct.std::_Tuple_impl.28" = type { %"struct.std::_Head_base.31" }
%"struct.std::_Head_base.31" = type { ptr }
%"class.std::vector.32" = type { %"struct.std::_Vector_base.33" }
%"struct.std::_Vector_base.33" = type { %"struct.std::_Vector_base<folly::detail::EventBasePoller::Handle *, std::allocator<folly::detail::EventBasePoller::Handle *>>::_Vector_impl" }
%"struct.std::_Vector_base<folly::detail::EventBasePoller::Handle *, std::allocator<folly::detail::EventBasePoller::Handle *>>::_Vector_impl" = type { %"struct.std::_Vector_base<folly::detail::EventBasePoller::Handle *, std::allocator<folly::detail::EventBasePoller::Handle *>>::_Vector_impl_data" }
%"struct.std::_Vector_base<folly::detail::EventBasePoller::Handle *, std::allocator<folly::detail::EventBasePoller::Handle *>>::_Vector_impl_data" = type { ptr, ptr, ptr }
%"struct.std::atomic.37" = type { %"struct.std::__atomic_base.38" }
%"struct.std::__atomic_base.38" = type { i8 }
%"class.folly::detail::(anonymous namespace)::Queue" = type { %"struct.std::atomic.39" }
%"struct.std::atomic.39" = type { %"struct.std::__atomic_base.40" }
%"struct.std::__atomic_base.40" = type { ptr }
%"class.google::LogMessage" = type { ptr, ptr }
%"class.google::LogMessageFatal" = type { %"class.google::LogMessage" }
%"struct.google::CheckOpString" = type { ptr }
%"class.folly::detail::(anonymous namespace)::EventBasePollerImpl::FdGroupImpl" = type { %"class.folly::detail::EventBasePoller::FdGroup", ptr, %"class.folly::Function", i64, [8 x i8] }
%"class.folly::detail::EventBasePoller::FdGroup" = type { ptr }
%"class.folly::Function" = type { %"union.folly::detail::function::Data", ptr, ptr }
%"union.folly::detail::function::Data" = type { %"struct.folly::detail::function::Data::BigTrivialLayout", [24 x i8] }
%"struct.folly::detail::function::Data::BigTrivialLayout" = type { ptr, i64, i64 }

@.str.5 = private unnamed_addr constant [124 x i8] c"generated/home/dtcxzyw/WorkSpace/Projects/compilers/llvm-opt-benchmark/bench/folly/folly/folly/io/async/EventBasePoller.cpp\00", align 1
@.str.39 = private unnamed_addr constant [17 x i8] c"numHandles_ == 0\00", align 1
@.str.40 = private unnamed_addr constant [58 x i8] c"All EventBases must be reclaimed before group destruction\00", align 1

; Function Attrs: mustprogress nounwind uwtable
define linkonce_odr noundef i64 @_ZNK5folly8FunctionIKDoFvNS_5RangeIPPNS_6detail15EventBasePoller6HandleEEEEE4execENS2_8function2OpEPNSA_4DataESD_(ptr noundef nonnull align 16 dereferenceable(64) %0, i32 noundef %1, ptr noundef %2, ptr noundef %3) #0 comdat align 2 {
  %5 = alloca i64, align 8
  %6 = alloca ptr, align 8
  %7 = alloca i32, align 4
  %8 = alloca ptr, align 8
  %9 = alloca ptr, align 8
  store ptr %0, ptr %6, align 8, !tbaa !167
  store i32 %1, ptr %7, align 4, !tbaa !498
  store ptr %2, ptr %8, align 8, !tbaa !496
  store ptr %3, ptr %9, align 8, !tbaa !496
  %10 = load ptr, ptr %6, align 8
  %11 = getelementptr inbounds nuw %"class.folly::Function", ptr %10, i32 0, i32 2
  %12 = load ptr, ptr %11, align 8, !tbaa !492
  %13 = icmp ne ptr %12, null
  br i1 %13, label %15, label %14

14:                                               ; preds = %4
  store i64 0, ptr %5, align 8
  br label %22

15:                                               ; preds = %4
  %16 = getelementptr inbounds nuw %"class.folly::Function", ptr %10, i32 0, i32 2
  %17 = load ptr, ptr %16, align 8, !tbaa !492
  %18 = load i32, ptr %7, align 4, !tbaa !498
  %19 = load ptr, ptr %8, align 8, !tbaa !496
  %20 = load ptr, ptr %9, align 8, !tbaa !496
  %21 = call noundef i64 %17(i32 noundef %18, ptr noundef %19, ptr noundef %20) #13
  store i64 %21, ptr %5, align 8
  br label %22

22:                                               ; preds = %15, %14
  %23 = load i64, ptr %5, align 8
  ret i64 %23
}

; Function Attrs: mustprogress nounwind uwtable
define void @_ZN5folly6detail15EventBasePoller7FdGroupD2Ev(ptr noundef nonnull align 8 dereferenceable(8) %0) unnamed_addr #0 align 2 {
  %2 = alloca ptr, align 8
  store ptr %0, ptr %2, align 8, !tbaa !14
  ret void
}

; Function Attrs: mustprogress nounwind uwtable
define linkonce_odr void @_ZN5folly8FunctionIKDoFvNS_5RangeIPPNS_6detail15EventBasePoller6HandleEEEEED2Ev(ptr noundef nonnull align 16 dereferenceable(64) %0) unnamed_addr #0 comdat align 2 {
  %2 = alloca ptr, align 8
  store ptr %0, ptr %2, align 8, !tbaa !167
  %3 = load ptr, ptr %2, align 8
  %4 = getelementptr inbounds nuw %"class.folly::Function", ptr %3, i32 0, i32 0
  %5 = call noundef i64 @_ZNK5folly8FunctionIKDoFvNS_5RangeIPPNS_6detail15EventBasePoller6HandleEEEEE4execENS2_8function2OpEPNSA_4DataESD_(ptr noundef nonnull align 16 dereferenceable(64) %3, i32 noundef 1, ptr noundef %4, ptr noundef null)
  ret void
}

; Function Attrs: mustprogress nounwind uwtable
define linkonce_odr noundef i64 @_ZNSt13__atomic_baseImEmmEv(ptr noundef nonnull align 8 dereferenceable(8) %0) #0 comdat align 2 {
  %2 = alloca ptr, align 8
  %3 = alloca i64, align 8
  %4 = alloca i64, align 8
  store ptr %0, ptr %2, align 8, !tbaa !82
  %5 = load ptr, ptr %2, align 8
  %6 = getelementptr inbounds nuw %"struct.std::__atomic_base.4", ptr %5, i32 0, i32 0
  store i64 1, ptr %3, align 8, !tbaa !28
  %7 = load i64, ptr %3, align 8
  %8 = atomicrmw sub ptr %6, i64 %7 seq_cst, align 8
  %9 = sub i64 %8, %7
  store i64 %9, ptr %4, align 8
  %10 = load i64, ptr %4, align 8, !tbaa !28
  ret i64 %10
}

; Function Attrs: mustprogress nounwind uwtable
define linkonce_odr noundef zeroext i1 @_ZNK6google13CheckOpStringcvbEv(ptr noundef nonnull align 8 dereferenceable(8) %0) #0 comdat align 2 {
  %2 = alloca ptr, align 8
  store ptr %0, ptr %2, align 8, !tbaa !369
  %3 = load ptr, ptr %2, align 8
  %4 = getelementptr inbounds nuw %"struct.google::CheckOpString", ptr %3, i32 0, i32 0
  %5 = load ptr, ptr %4, align 8, !tbaa !371
  %6 = icmp ne ptr %5, null
  %7 = zext i1 %6 to i64
  %8 = call i64 @llvm.expect.i64(i64 %7, i64 0)
  %9 = icmp ne i64 %8, 0
  ret i1 %9
}

; Function Attrs: mustprogress nounwind uwtable
define linkonce_odr void @_ZN6google13CheckOpStringC2EPNSt7__cxx1112basic_stringIcSt11char_traitsIcESaIcEEE(ptr noundef nonnull align 8 dereferenceable(8) %0, ptr noundef %1) unnamed_addr #0 comdat align 2 {
  %3 = alloca ptr, align 8
  %4 = alloca ptr, align 8
  store ptr %0, ptr %3, align 8, !tbaa !369
  store ptr %1, ptr %4, align 8, !tbaa !16
  %5 = load ptr, ptr %3, align 8
  %6 = getelementptr inbounds nuw %"struct.google::CheckOpString", ptr %5, i32 0, i32 0
  %7 = load ptr, ptr %4, align 8, !tbaa !16
  store ptr %7, ptr %6, align 8, !tbaa !371
  ret void
}

; Function Attrs: inlinehint mustprogress uwtable
define linkonce_odr noundef ptr @_ZN6google12Check_EQImplImiEEPNSt7__cxx1112basic_stringIcSt11char_traitsIcESaIcEEERKT_RKT0_PKc(ptr noundef nonnull align 8 dereferenceable(8) %0, ptr noundef nonnull align 4 dereferenceable(4) %1, ptr noundef %2) #2 comdat {
  %4 = alloca ptr, align 8
  %5 = alloca ptr, align 8
  %6 = alloca ptr, align 8
  %7 = alloca ptr, align 8
  store ptr %0, ptr %5, align 8, !tbaa !204
  store ptr %1, ptr %6, align 8, !tbaa !61
  store ptr %2, ptr %7, align 8, !tbaa !18
  %8 = load ptr, ptr %5, align 8, !tbaa !204
  %9 = load i64, ptr %8, align 8, !tbaa !28
  %10 = load ptr, ptr %6, align 8, !tbaa !61
  %11 = load i32, ptr %10, align 4, !tbaa !52
  %12 = sext i32 %11 to i64
  %13 = icmp eq i64 %9, %12
  %14 = xor i1 %13, true
  %15 = xor i1 %14, true
  %16 = zext i1 %15 to i64
  %17 = call i64 @llvm.expect.i64(i64 %16, i64 1)
  %18 = icmp ne i64 %17, 0
  br i1 %18, label %19, label %20

19:                                               ; preds = %3
  store ptr null, ptr %4, align 8
  br label %25

20:                                               ; preds = %3
  %21 = load ptr, ptr %5, align 8, !tbaa !204
  %22 = load ptr, ptr %6, align 8, !tbaa !61
  %23 = load ptr, ptr %7, align 8, !tbaa !18
  %24 = call noundef ptr @_ZN6google17MakeCheckOpStringImiEEPNSt7__cxx1112basic_stringIcSt11char_traitsIcESaIcEEERKT_RKT0_PKc(ptr noundef nonnull align 8 dereferenceable(8) %21, ptr noundef nonnull align 4 dereferenceable(4) %22, ptr noundef %23)
  store ptr %24, ptr %4, align 8
  br label %25

25:                                               ; preds = %20, %19
  %26 = load ptr, ptr %4, align 8
  ret ptr %26
}

; Function Attrs: inlinehint mustprogress nounwind uwtable
define linkonce_odr noundef i32 @_ZN6google21GetReferenceableValueEi(i32 noundef %0) #9 comdat {
  %2 = alloca i32, align 4
  store i32 %0, ptr %2, align 4, !tbaa !52
  %3 = load i32, ptr %2, align 4, !tbaa !52
  ret i32 %3
}

; Function Attrs: inlinehint mustprogress nounwind uwtable
define linkonce_odr noundef i64 @_ZN6google21GetReferenceableValueEm(i64 noundef %0) #9 comdat {
  %2 = alloca i64, align 8
  store i64 %0, ptr %2, align 8, !tbaa !28
  %3 = load i64, ptr %2, align 8, !tbaa !28
  ret i64 %3
}

; Function Attrs: mustprogress nounwind uwtable
define internal void @_ZN5folly6detail12_GLOBAL__N_119EventBasePollerImpl11FdGroupImplD2Ev(ptr noundef nonnull align 16 dereferenceable(96) %0) unnamed_addr #0 align 2 personality ptr @__gxx_personality_v0 {
  %2 = alloca ptr, align 8
  %3 = alloca %"struct.google::CheckOpString", align 8
  %4 = alloca i64, align 8
  %5 = alloca i32, align 4
  %6 = alloca %"class.google::LogMessageFatal", align 8
  store ptr %0, ptr %2, align 8, !tbaa !353
  %7 = load ptr, ptr %2, align 8
  br label %8

8:                                                ; preds = %1
  call void @llvm.lifetime.start.p0(i64 8, ptr %3) #13
  call void @llvm.lifetime.start.p0(i64 8, ptr %4) #13
  %9 = getelementptr inbounds nuw %"class.folly::detail::(anonymous namespace)::EventBasePollerImpl::FdGroupImpl", ptr %7, i32 0, i32 3
  %10 = load i64, ptr %9, align 16, !tbaa !493
  %11 = call noundef i64 @_ZN6google21GetReferenceableValueEm(i64 noundef %10)
  store i64 %11, ptr %4, align 8, !tbaa !28
  call void @llvm.lifetime.start.p0(i64 4, ptr %5) #13
  %12 = call noundef i32 @_ZN6google21GetReferenceableValueEi(i32 noundef 0)
  store i32 %12, ptr %5, align 4, !tbaa !52
  %13 = invoke noundef ptr @_ZN6google12Check_EQImplImiEEPNSt7__cxx1112basic_stringIcSt11char_traitsIcESaIcEEERKT_RKT0_PKc(ptr noundef nonnull align 8 dereferenceable(8) %4, ptr noundef nonnull align 4 dereferenceable(4) %5, ptr noundef @.str.39)
          to label %14 unwind label %30

14:                                               ; preds = %8
  invoke void @_ZN6google13CheckOpStringC2EPNSt7__cxx1112basic_stringIcSt11char_traitsIcESaIcEEE(ptr noundef nonnull align 8 dereferenceable(8) %3, ptr noundef %13)
          to label %15 unwind label %30

15:                                               ; preds = %14
  call void @llvm.lifetime.end.p0(i64 4, ptr %5) #13
  call void @llvm.lifetime.end.p0(i64 8, ptr %4) #13
  %16 = call noundef zeroext i1 @_ZNK6google13CheckOpStringcvbEv(ptr noundef nonnull align 8 dereferenceable(8) %3)
  br i1 %16, label %18, label %17

17:                                               ; preds = %15
  call void @llvm.lifetime.end.p0(i64 8, ptr %3) #13
  br label %24

18:                                               ; preds = %15
  call void @llvm.lifetime.start.p0(i64 16, ptr %6) #13
  invoke void @_ZN6google15LogMessageFatalC1EPKciRKNS_13CheckOpStringE(ptr noundef nonnull align 8 dereferenceable(16) %6, ptr noundef @.str.5, i32 noundef 243, ptr noundef nonnull align 8 dereferenceable(8) %3)
          to label %19 unwind label %30

19:                                               ; preds = %18
  %20 = invoke noundef nonnull align 8 dereferenceable(8) ptr @_ZN6google10LogMessage6streamEv(ptr noundef nonnull align 8 dereferenceable(16) %6)
          to label %21 unwind label %30

21:                                               ; preds = %19
  %22 = invoke noundef nonnull align 8 dereferenceable(8) ptr @_ZStlsISt11char_traitsIcEERSt13basic_ostreamIcT_ES5_PKc(ptr noundef nonnull align 8 dereferenceable(8) %20, ptr noundef @.str.40)
          to label %23 unwind label %30

23:                                               ; preds = %21
  call void @_ZN6google15LogMessageFatalD1Ev(ptr noundef nonnull align 8 dereferenceable(16) %6) #28
  unreachable

24:                                               ; preds = %17
  %25 = getelementptr inbounds nuw %"class.folly::detail::(anonymous namespace)::EventBasePollerImpl::FdGroupImpl", ptr %7, i32 0, i32 1
  %26 = load ptr, ptr %25, align 8, !tbaa !223
  %27 = getelementptr inbounds nuw %"class.folly::detail::(anonymous namespace)::EventBasePollerImpl", ptr %26, i32 0, i32 3
  %28 = call noundef i64 @_ZNSt13__atomic_baseImEmmEv(ptr noundef nonnull align 8 dereferenceable(8) %27) #13
  %29 = getelementptr inbounds nuw %"class.folly::detail::(anonymous namespace)::EventBasePollerImpl::FdGroupImpl", ptr %7, i32 0, i32 2
  call void @_ZN5folly8FunctionIKDoFvNS_5RangeIPPNS_6detail15EventBasePoller6HandleEEEEED2Ev(ptr noundef nonnull align 16 dereferenceable(64) %29) #13
  call void @_ZN5folly6detail15EventBasePoller7FdGroupD2Ev(ptr noundef nonnull align 8 dereferenceable(8) %7) #13
  ret void

30:                                               ; preds = %21, %19, %18, %14, %8
  %31 = landingpad { ptr, i32 }
          catch ptr null
  %32 = extractvalue { ptr, i32 } %31, 0
  call void @__clang_call_terminate(ptr %32) #28
  unreachable
}