; Function Attrs: mustprogress nounwind uwtable
define internal void @_ZN5folly6detail12_GLOBAL__N_119EventBasePollerImpl11FdGroupImplD2Ev(ptr noundef nonnull align 16 dereferenceable(96) %0) unnamed_addr #10 align 2 personality ptr @__gxx_personality_v0 {
  %2 = alloca %"struct.google::CheckOpString", align 8
  %3 = alloca i64, align 8
  %4 = alloca i32, align 4
  %5 = alloca %"class.google::LogMessageFatal", align 8
  call void @llvm.lifetime.start.p0(i64 8, ptr nonnull %2) #26
  call void @llvm.lifetime.start.p0(i64 8, ptr nonnull %3) #26
  %6 = getelementptr inbounds nuw i8, ptr %0, i64 80
  %7 = load i64, ptr %6, align 16, !tbaa !139
  store i64 %7, ptr %3, align 8, !tbaa !13
  call void @llvm.lifetime.start.p0(i64 4, ptr nonnull %4) #26
  store i32 0, ptr %4, align 4, !tbaa !22
  %8 = icmp eq i64 %7, 0
  br i1 %8, label %_ZN6google12Check_EQImplImiEEPNSt7__cxx1112basic_stringIcSt11char_traitsIcESaIcEEERKT_RKT0_PKc.exit.thread, label %9, !prof !33

_ZN6google12Check_EQImplImiEEPNSt7__cxx1112basic_stringIcSt11char_traitsIcESaIcEEERKT_RKT0_PKc.exit.thread: ; preds = %1
  call void @llvm.lifetime.end.p0(i64 4, ptr nonnull %4) #26
  call void @llvm.lifetime.end.p0(i64 8, ptr nonnull %3) #26
  br label %11

9:                                                ; preds = %1
  %10 = invoke noundef ptr @_ZN6google17MakeCheckOpStringImiEEPNSt7__cxx1112basic_stringIcSt11char_traitsIcESaIcEEERKT_RKT0_PKc(ptr noundef nonnull align 8 dereferenceable(8) %3, ptr noundef nonnull align 4 dereferenceable(4) %4, ptr noundef nonnull @.str.39)
          to label %_ZN6google12Check_EQImplImiEEPNSt7__cxx1112basic_stringIcSt11char_traitsIcESaIcEEERKT_RKT0_PKc.exit unwind label %27

_ZN6google12Check_EQImplImiEEPNSt7__cxx1112basic_stringIcSt11char_traitsIcESaIcEEERKT_RKT0_PKc.exit: ; preds = %9
  store ptr %10, ptr %2, align 8, !tbaa !150
  call void @llvm.lifetime.end.p0(i64 4, ptr nonnull %4) #26
  call void @llvm.lifetime.end.p0(i64 8, ptr nonnull %3) #26
  %.not = icmp eq ptr %10, null
  br i1 %.not, label %11, label %21

11:                                               ; preds = %_ZN6google12Check_EQImplImiEEPNSt7__cxx1112basic_stringIcSt11char_traitsIcESaIcEEERKT_RKT0_PKc.exit.thread, %_ZN6google12Check_EQImplImiEEPNSt7__cxx1112basic_stringIcSt11char_traitsIcESaIcEEERKT_RKT0_PKc.exit
  call void @llvm.lifetime.end.p0(i64 8, ptr nonnull %2) #26
  %12 = getelementptr inbounds nuw i8, ptr %0, i64 8
  %13 = load ptr, ptr %12, align 8, !tbaa !136
  %14 = getelementptr inbounds nuw i8, ptr %13, i64 120
  %15 = atomicrmw sub ptr %14, i64 1 seq_cst, align 8
  %16 = getelementptr inbounds nuw i8, ptr %0, i64 72
  %17 = load ptr, ptr %16, align 8, !tbaa !135
  %.not.i.i = icmp eq ptr %17, null
  br i1 %.not.i.i, label %_ZN5folly8FunctionIKDoFvNS_5RangeIPPNS_6detail15EventBasePoller6HandleEEEEED2Ev.exit, label %18

18:                                               ; preds = %11
  %19 = getelementptr inbounds nuw i8, ptr %0, i64 16
  %20 = call noundef i64 %17(i32 noundef 1, ptr noundef nonnull align 16 dereferenceable(64) %19, ptr noundef null) #26
  br label %_ZN5folly8FunctionIKDoFvNS_5RangeIPPNS_6detail15EventBasePoller6HandleEEEEED2Ev.exit

_ZN5folly8FunctionIKDoFvNS_5RangeIPPNS_6detail15EventBasePoller6HandleEEEEED2Ev.exit: ; preds = %11, %18
  ret void

21:                                               ; preds = %_ZN6google12Check_EQImplImiEEPNSt7__cxx1112basic_stringIcSt11char_traitsIcESaIcEEERKT_RKT0_PKc.exit
  call void @llvm.lifetime.start.p0(i64 16, ptr nonnull %5) #26
  invoke void @_ZN6google15LogMessageFatalC1EPKciRKNS_13CheckOpStringE(ptr noundef nonnull align 8 dereferenceable(16) %5, ptr noundef nonnull @.str.5, i32 noundef 243, ptr noundef nonnull align 8 dereferenceable(8) %2)
          to label %22 unwind label %27

22:                                               ; preds = %21
  %23 = invoke noundef nonnull align 8 dereferenceable(8) ptr @_ZN6google10LogMessage6streamEv(ptr noundef nonnull align 8 dereferenceable(16) %5)
          to label %24 unwind label %27

24:                                               ; preds = %22
  %25 = invoke noundef nonnull align 8 dereferenceable(8) ptr @_ZStlsISt11char_traitsIcEERSt13basic_ostreamIcT_ES5_PKc(ptr noundef nonnull align 8 dereferenceable(8) %23, ptr noundef nonnull @.str.40)
          to label %26 unwind label %27

26:                                               ; preds = %24
  call void @_ZN6google15LogMessageFatalD1Ev(ptr noundef nonnull align 8 dereferenceable(16) %5) #34
  unreachable

27:                                               ; preds = %9, %24, %22, %21
  %28 = landingpad { ptr, i32 }
          catch ptr null
  %29 = extractvalue { ptr, i32 } %28, 0
  call void @__clang_call_terminate(ptr %29) #34
  unreachable
}